target datalayout = "e-m:e-p270:32:32-p271:32:32-p272:64:64-i64:64-i128:128-f80:128-n8:16:32:64-S128"
target triple = "x86_64-unknown-linux-gnu"

%struct.BlockDriverState = type { i32, i8, i8, i8, i8, i8, ptr, ptr, ptr, %struct.anon, i8, [4096 x i8], [4096 x i8], [4096 x i8], [16 x i8], ptr, [4096 x i8], %struct.BlockLimits, i32, i32, i32, i32, [32 x i8], %union.anon, %union.anon.0, %union.anon.1, i32, [16 x %struct.anon.2], ptr, %struct.anon.3, ptr, ptr, %struct.anon.4, ptr, ptr, i32, ptr, i64, i64, %struct.QemuMutex, %struct.anon.5, %struct.Stat64, i32, i32, i32, i32, i32, i32, %struct.QemuMutex, %struct.anon.6, %struct.CoQueue, i8, i32, i8, %struct.CoMutex, ptr, ptr }
%struct.anon = type { ptr }
%struct.BlockLimits = type { i32, i64, i32, i64, i32, i32, i32, i64, i32, i64, i64, i32, i8, i32, i32, i32, i32, i32, i32, i32 }
%union.anon = type { %struct.QTailQLink }
%struct.QTailQLink = type { ptr, ptr }
%union.anon.0 = type { %struct.QTailQLink }
%union.anon.1 = type { %struct.QTailQLink }
%struct.anon.2 = type { ptr }
%struct.anon.3 = type { ptr }
%struct.anon.4 = type { ptr }
%struct.anon.5 = type { ptr }
%struct.Stat64 = type { i64 }
%struct.QemuMutex = type { %union.pthread_mutex_t, i8 }
%union.pthread_mutex_t = type { %struct.__pthread_mutex_s }
%struct.__pthread_mutex_s = type { i32, i32, i32, i32, i32, i16, i16, %struct.__pthread_internal_list }
%struct.__pthread_internal_list = type { ptr, ptr }
%struct.anon.6 = type { ptr }
%struct.CoQueue = type { %struct.anon.7 }
%struct.anon.7 = type { ptr, ptr }
%struct.CoMutex = type { i32, ptr, %struct.anon.8, %struct.anon.8, i32, i32, ptr }
%struct.anon.8 = type { ptr }
%struct.BDRVQcow2State = type { i32, i32, i32, i32, i32, i32, i32, i32, i32, i32, i32, i32, i32, i32, i64, i64, ptr, ptr, ptr, ptr, i32, %struct.anon.9, ptr, i64, i32, i32, i64, i64, %struct.CoMutex, %struct.Qcow2CryptoHeaderExtension, ptr, ptr, i8, i32, i64, i32, i32, ptr, i32, i64, i64, i32, i32, i8, i32, i32, i64, ptr, ptr, [5 x i8], i8, i32, i8, i64, i64, i64, i64, ptr, %struct.anon.10, %union.anon.11, i8, ptr, ptr, ptr, %struct.CoQueue, i32, ptr, i8, i8, i32 }
%struct.anon.9 = type { ptr }
%struct.Qcow2CryptoHeaderExtension = type { i64, i64 }
%struct.anon.10 = type { ptr }
%union.anon.11 = type { %struct.QTailQLink }
%struct.QCowSnapshot = type { i64, i32, ptr, ptr, i64, i64, i32, i32, i64, i64, i32, ptr }

@.str.27 = private unnamed_addr constant [18 x i8] c"Snapshot L1 table\00", align 1

; Function Attrs: nounwind sspstrong uwtable
define internal void @be64_to_cpus(ptr noundef %p) #0 {
entry:
  %p.addr = alloca ptr, align 8
  store ptr %p, ptr %p.addr, align 8
  br label %do.body

do.body:                                          ; preds = %entry
  %0 = load ptr, ptr %p.addr, align 8
  %1 = load i64, ptr %0, align 8
  %2 = call i64 @llvm.bswap.i64(i64 %1)
  %3 = load ptr, ptr %p.addr, align 8
  store i64 %2, ptr %3, align 8
  br label %do.end

do.end:                                           ; preds = %do.body
  ret void
}

; Function Attrs: nounwind sspstrong uwtable
define dso_local i32 @qcow2_expand_zero_clusters(ptr noundef %bs, ptr noundef %status_cb, ptr noundef %cb_opaque) #0 {
entry:
  %bs.addr = alloca ptr, align 8
  %status_cb.addr = alloca ptr, align 8
  %cb_opaque.addr = alloca ptr, align 8
  %s = alloca ptr, align 8
  %l1_table = alloca ptr, align 8
  %l1_entries = alloca i64, align 8
  %visited_l1_entries = alloca i64, align 8
  %ret = alloca i32, align 4
  %i = alloca i32, align 4
  %j = alloca i32, align 4
  %l1_size220 = alloca i32, align 4
  %new_l1_table = alloca ptr, align 8
  %local_err = alloca ptr, align 8
  store ptr %bs, ptr %bs.addr, align 8
  store ptr %status_cb, ptr %status_cb.addr, align 8
  store ptr %cb_opaque, ptr %cb_opaque.addr, align 8
  %0 = load ptr, ptr %bs.addr, align 8
  %opaque = getelementptr inbounds %struct.BlockDriverState, ptr %0, i32 0, i32 7
  %1 = load ptr, ptr %opaque, align 8
  store ptr %1, ptr %s, align 8
  store ptr null, ptr %l1_table, align 8
  store i64 0, ptr %l1_entries, align 8
  store i64 0, ptr %visited_l1_entries, align 8
  %2 = load ptr, ptr %status_cb.addr, align 8
  %tobool = icmp ne ptr %2, null
  br i1 %tobool, label %if.then, label %if.end

if.then:                                          ; preds = %entry
  %3 = load ptr, ptr %s, align 8
  %l1_size = getelementptr inbounds %struct.BDRVQcow2State, ptr %3, i32 0, i32 8
  %4 = load i32, ptr %l1_size, align 8
  %conv = sext i32 %4 to i64
  store i64 %conv, ptr %l1_entries, align 8
  store i32 0, ptr %i, align 4
  br label %for.cond

for.cond:                                         ; preds = %for.inc, %if.then
  %5 = load i32, ptr %i, align 4
  %6 = load ptr, ptr %s, align 8
  %nb_snapshots = getelementptr inbounds %struct.BDRVQcow2State, ptr %6, i32 0, i32 36
  %7 = load i32, ptr %nb_snapshots, align 4
  %cmp = icmp ult i32 %5, %7
  br i1 %cmp, label %for.body, label %for.end

for.body:                                         ; preds = %for.cond
  %8 = load ptr, ptr %s, align 8
  %snapshots = getelementptr inbounds %struct.BDRVQcow2State, ptr %8, i32 0, i32 37
  %9 = load ptr, ptr %snapshots, align 8
  %10 = load i32, ptr %i, align 4
  %idxprom = sext i32 %10 to i64
  %arrayidx = getelementptr %struct.QCowSnapshot, ptr %9, i64 %idxprom
  %l1_size2 = getelementptr inbounds %struct.QCowSnapshot, ptr %arrayidx, i32 0, i32 1
  %11 = load i32, ptr %l1_size2, align 8
  %conv3 = zext i32 %11 to i64
  %12 = load i64, ptr %l1_entries, align 8
  %add = add i64 %12, %conv3
  store i64 %add, ptr %l1_entries, align 8
  br label %for.inc

for.inc:                                          ; preds = %for.body
  %13 = load i32, ptr %i, align 4
  %inc = add i32 %13, 1
  store i32 %inc, ptr %i, align 4
  br label %for.cond, !llvm.loop !19

for.end:                                          ; preds = %for.cond
  br label %if.end

if.end:                                           ; preds = %for.end, %entry
  %14 = load ptr, ptr %bs.addr, align 8
  %15 = load ptr, ptr %s, align 8
  %l1_table4 = getelementptr inbounds %struct.BDRVQcow2State, ptr %15, i32 0, i32 16
  %16 = load ptr, ptr %l1_table4, align 8
  %17 = load ptr, ptr %s, align 8
  %l1_size5 = getelementptr inbounds %struct.BDRVQcow2State, ptr %17, i32 0, i32 8
  %18 = load i32, ptr %l1_size5, align 8
  %19 = load i64, ptr %l1_entries, align 8
  %20 = load ptr, ptr %status_cb.addr, align 8
  %21 = load ptr, ptr %cb_opaque.addr, align 8
  %call = call i32 @expand_zero_clusters_in_l1(ptr noundef %14, ptr noundef %16, i32 noundef %18, ptr noundef %visited_l1_entries, i64 noundef %19, ptr noundef %20, ptr noundef %21)
  store i32 %call, ptr %ret, align 4
  %22 = load i32, ptr %ret, align 4
  %cmp6 = icmp slt i32 %22, 0
  br i1 %cmp6, label %if.then8, label %if.end9

if.then8:                                         ; preds = %if.end
  br label %fail

if.end9:                                          ; preds = %if.end
  %23 = load ptr, ptr %bs.addr, align 8
  %24 = load ptr, ptr %s, align 8
  %l2_table_cache = getelementptr inbounds %struct.BDRVQcow2State, ptr %24, i32 0, i32 17
  %25 = load ptr, ptr %l2_table_cache, align 8
  %call10 = call i32 @qcow2_cache_empty(ptr noundef %23, ptr noundef %25)
  store i32 %call10, ptr %ret, align 4
  %26 = load i32, ptr %ret, align 4
  %cmp11 = icmp slt i32 %26, 0
  br i1 %cmp11, label %if.then13, label %if.end14

if.then13:                                        ; preds = %if.end9
  br label %fail

if.end14:                                         ; preds = %if.end9
  store i32 0, ptr %i, align 4
  br label %for.cond15

for.cond15:                                       ; preds = %for.inc77, %if.end14
  %27 = load i32, ptr %i, align 4
  %28 = load ptr, ptr %s, align 8
  %nb_snapshots16 = getelementptr inbounds %struct.BDRVQcow2State, ptr %28, i32 0, i32 36
  %29 = load i32, ptr %nb_snapshots16, align 4
  %cmp17 = icmp ult i32 %27, %29
  br i1 %cmp17, label %for.body19, label %for.end79

for.body19:                                       ; preds = %for.cond15
  store ptr null, ptr %local_err, align 8
  %30 = load ptr, ptr %bs.addr, align 8
  %31 = load ptr, ptr %s, align 8
  %snapshots21 = getelementptr inbounds %struct.BDRVQcow2State, ptr %31, i32 0, i32 37
  %32 = load ptr, ptr %snapshots21, align 8
  %33 = load i32, ptr %i, align 4
  %idxprom22 = sext i32 %33 to i64
  %arrayidx23 = getelementptr %struct.QCowSnapshot, ptr %32, i64 %idxprom22
  %l1_table_offset = getelementptr inbounds %struct.QCowSnapshot, ptr %arrayidx23, i32 0, i32 0
  %34 = load i64, ptr %l1_table_offset, align 8
  %35 = load ptr, ptr %s, align 8
  %snapshots24 = getelementptr inbounds %struct.BDRVQcow2State, ptr %35, i32 0, i32 37
  %36 = load ptr, ptr %snapshots24, align 8
  %37 = load i32, ptr %i, align 4
  %idxprom25 = sext i32 %37 to i64
  %arrayidx26 = getelementptr %struct.QCowSnapshot, ptr %36, i64 %idxprom25
  %l1_size27 = getelementptr inbounds %struct.QCowSnapshot, ptr %arrayidx26, i32 0, i32 1
  %38 = load i32, ptr %l1_size27, align 8
  %conv28 = zext i32 %38 to i64
  %call29 = call i32 @qcow2_validate_table(ptr noundef %30, i64 noundef %34, i64 noundef %conv28, i64 noundef 8, i64 noundef 33554432, ptr noundef @.str.27, ptr noundef %local_err)
  store i32 %call29, ptr %ret, align 4
  %39 = load i32, ptr %ret, align 4
  %cmp30 = icmp slt i32 %39, 0
  br i1 %cmp30, label %if.then32, label %if.end33

if.then32:                                        ; preds = %for.body19
  %40 = load ptr, ptr %local_err, align 8
  call void @error_report_err(ptr noundef %40)
  br label %fail

if.end33:                                         ; preds = %for.body19
  %41 = load ptr, ptr %s, align 8
  %snapshots34 = getelementptr inbounds %struct.BDRVQcow2State, ptr %41, i32 0, i32 37
  %42 = load ptr, ptr %snapshots34, align 8
  %43 = load i32, ptr %i, align 4
  %idxprom35 = sext i32 %43 to i64
  %arrayidx36 = getelementptr %struct.QCowSnapshot, ptr %42, i64 %idxprom35
  %l1_size37 = getelementptr inbounds %struct.QCowSnapshot, ptr %arrayidx36, i32 0, i32 1
  %44 = load i32, ptr %l1_size37, align 8
  %conv38 = zext i32 %44 to i64
  %mul = mul i64 %conv38, 8
  %conv39 = trunc i64 %mul to i32
  store i32 %conv39, ptr %l1_size220, align 4
  %45 = load ptr, ptr %l1_table, align 8
  %46 = load i32, ptr %l1_size220, align 4
  %conv40 = sext i32 %46 to i64
  %call41 = call ptr @g_try_realloc(ptr noundef %45, i64 noundef %conv40)
  store ptr %call41, ptr %new_l1_table, align 8
  %47 = load ptr, ptr %new_l1_table, align 8
  %tobool42 = icmp ne ptr %47, null
  br i1 %tobool42, label %if.end44, label %if.then43

if.then43:                                        ; preds = %if.end33
  store i32 -12, ptr %ret, align 4
  br label %fail

if.end44:                                         ; preds = %if.end33
  %48 = load ptr, ptr %new_l1_table, align 8
  store ptr %48, ptr %l1_table, align 8
  %49 = load ptr, ptr %bs.addr, align 8
  %file = getelementptr inbounds %struct.BlockDriverState, ptr %49, i32 0, i32 31
  %50 = load ptr, ptr %file, align 8
  %51 = load ptr, ptr %s, align 8
  %snapshots45 = getelementptr inbounds %struct.BDRVQcow2State, ptr %51, i32 0, i32 37
  %52 = load ptr, ptr %snapshots45, align 8
  %53 = load i32, ptr %i, align 4
  %idxprom46 = sext i32 %53 to i64
  %arrayidx47 = getelementptr %struct.QCowSnapshot, ptr %52, i64 %idxprom46
  %l1_table_offset48 = getelementptr inbounds %struct.QCowSnapshot, ptr %arrayidx47, i32 0, i32 0
  %54 = load i64, ptr %l1_table_offset48, align 8
  %55 = load i32, ptr %l1_size220, align 4
  %conv49 = sext i32 %55 to i64
  %56 = load ptr, ptr %l1_table, align 8
  %call50 = call i32 @bdrv_pread(ptr noundef %50, i64 noundef %54, i64 noundef %conv49, ptr noundef %56, i32 noundef 0)
  store i32 %call50, ptr %ret, align 4
  %57 = load i32, ptr %ret, align 4
  %cmp51 = icmp slt i32 %57, 0
  br i1 %cmp51, label %if.then53, label %if.end54

if.then53:                                        ; preds = %if.end44
  br label %fail

if.end54:                                         ; preds = %if.end44
  store i32 0, ptr %j, align 4
  br label %for.cond55

for.cond55:                                       ; preds = %for.inc65, %if.end54
  %58 = load i32, ptr %j, align 4
  %59 = load ptr, ptr %s, align 8
  %snapshots56 = getelementptr inbounds %struct.BDRVQcow2State, ptr %59, i32 0, i32 37
  %60 = load ptr, ptr %snapshots56, align 8
  %61 = load i32, ptr %i, align 4
  %idxprom57 = sext i32 %61 to i64
  %arrayidx58 = getelementptr %struct.QCowSnapshot, ptr %60, i64 %idxprom57
  %l1_size59 = getelementptr inbounds %struct.QCowSnapshot, ptr %arrayidx58, i32 0, i32 1
  %62 = load i32, ptr %l1_size59, align 8
  %cmp60 = icmp ult i32 %58, %62
  br i1 %cmp60, label %for.body62, label %for.end67

for.body62:                                       ; preds = %for.cond55
  %63 = load ptr, ptr %l1_table, align 8
  %64 = load i32, ptr %j, align 4
  %idxprom63 = sext i32 %64 to i64
  %arrayidx64 = getelementptr i64, ptr %63, i64 %idxprom63
  call void @be64_to_cpus(ptr noundef %arrayidx64)
  br label %for.inc65

for.inc65:                                        ; preds = %for.body62
  %65 = load i32, ptr %j, align 4
  %inc66 = add i32 %65, 1
  store i32 %inc66, ptr %j, align 4
  br label %for.cond55, !llvm.loop !20

for.end67:                                        ; preds = %for.cond55
  %66 = load ptr, ptr %bs.addr, align 8
  %67 = load ptr, ptr %l1_table, align 8
  %68 = load ptr, ptr %s, align 8
  %snapshots68 = getelementptr inbounds %struct.BDRVQcow2State, ptr %68, i32 0, i32 37
  %69 = load ptr, ptr %snapshots68, align 8
  %70 = load i32, ptr %i, align 4
  %idxprom69 = sext i32 %70 to i64
  %arrayidx70 = getelementptr %struct.QCowSnapshot, ptr %69, i64 %idxprom69
  %l1_size71 = getelementptr inbounds %struct.QCowSnapshot, ptr %arrayidx70, i32 0, i32 1
  %71 = load i32, ptr %l1_size71, align 8
  %72 = load i64, ptr %l1_entries, align 8
  %73 = load ptr, ptr %status_cb.addr, align 8
  %74 = load ptr, ptr %cb_opaque.addr, align 8
  %call72 = call i32 @expand_zero_clusters_in_l1(ptr noundef %66, ptr noundef %67, i32 noundef %71, ptr noundef %visited_l1_entries, i64 noundef %72, ptr noundef %73, ptr noundef %74)
  store i32 %call72, ptr %ret, align 4
  %75 = load i32, ptr %ret, align 4
  %cmp73 = icmp slt i32 %75, 0
  br i1 %cmp73, label %if.then75, label %if.end76

if.then75:                                        ; preds = %for.end67
  br label %fail

if.end76:                                         ; preds = %for.end67
  br label %for.inc77

for.inc77:                                        ; preds = %if.end76
  %76 = load i32, ptr %i, align 4
  %inc78 = add i32 %76, 1
  store i32 %inc78, ptr %i, align 4
  br label %for.cond15, !llvm.loop !21

for.end79:                                        ; preds = %for.cond15
  store i32 0, ptr %ret, align 4
  br label %fail

fail:                                             ; preds = %for.end79, %if.then75, %if.then53, %if.then43, %if.then32, %if.then13, %if.then8
  %77 = load ptr, ptr %l1_table, align 8
  call void @g_free(ptr noundef %77)
  %78 = load i32, ptr %ret, align 4
  ret i32 %78
}