; Function Attrs: nounwind sspstrong uwtable
define dso_local range(i32 -2147483648, 1) i32 @qcow2_expand_zero_clusters(ptr noundef %bs, ptr noundef %status_cb, ptr noundef %cb_opaque) local_unnamed_addr #0 {
entry:
  %visited_l1_entries = alloca i64, align 8
  %local_err = alloca ptr, align 8
  %opaque = getelementptr inbounds nuw i8, ptr %bs, i64 24
  %0 = load ptr, ptr %opaque, align 8
  store i64 0, ptr %visited_l1_entries, align 8
  %tobool.not = icmp eq ptr %status_cb, null
  br i1 %tobool.not, label %entry.split, label %if.then

entry.split:                                      ; preds = %entry
  %l1_table446 = getelementptr inbounds nuw i8, ptr %0, i64 72
  %1 = load ptr, ptr %l1_table446, align 8
  %l1_size547 = getelementptr inbounds nuw i8, ptr %0, i64 32
  %2 = load i32, ptr %l1_size547, align 8
  %call48 = call fastcc i32 @expand_zero_clusters_in_l1(ptr noundef nonnull %bs, ptr noundef %1, i32 noundef %2, ptr noundef %visited_l1_entries, i64 noundef 0, ptr noundef null, ptr noundef %cb_opaque)
  br label %if.end

if.then:                                          ; preds = %entry
  %l1_size = getelementptr inbounds nuw i8, ptr %0, i64 32
  %3 = load i32, ptr %l1_size, align 8
  %conv = sext i32 %3 to i64
  %nb_snapshots = getelementptr inbounds nuw i8, ptr %0, i64 260
  %4 = load i32, ptr %nb_snapshots, align 4
  %cmp53.not = icmp eq i32 %4, 0
  br i1 %cmp53.not, label %for.cond.split, label %for.body.lr.ph

for.body.lr.ph:                                   ; preds = %if.then
  %snapshots = getelementptr inbounds nuw i8, ptr %0, i64 264
  %5 = load ptr, ptr %snapshots, align 8
  br label %for.body

for.cond.split:                                   ; preds = %for.body, %if.then
  %l1_entries.1.lcssa = phi i64 [ %conv, %if.then ], [ %add, %for.body ]
  %l1_table449 = getelementptr inbounds nuw i8, ptr %0, i64 72
  %6 = load ptr, ptr %l1_table449, align 8
  %call51 = call fastcc i32 @expand_zero_clusters_in_l1(ptr noundef %bs, ptr noundef %6, i32 noundef %3, ptr noundef %visited_l1_entries, i64 noundef %l1_entries.1.lcssa, ptr noundef nonnull %status_cb, ptr noundef %cb_opaque)
  br label %if.end

for.body:                                         ; preds = %for.body.lr.ph, %for.body
  %l1_entries.155 = phi i64 [ %conv, %for.body.lr.ph ], [ %add, %for.body ]
  %i.054 = phi i32 [ 0, %for.body.lr.ph ], [ %inc, %for.body ]
  %idxprom = sext i32 %i.054 to i64
  %l1_size2 = getelementptr %struct.QCowSnapshot, ptr %5, i64 %idxprom, i32 1
  %7 = load i32, ptr %l1_size2, align 8
  %conv3 = zext i32 %7 to i64
  %add = add i64 %l1_entries.155, %conv3
  %inc = add nuw i32 %i.054, 1
  %exitcond.not = icmp eq i32 %inc, %4
  br i1 %exitcond.not, label %for.cond.split, label %for.body, !llvm.loop !20

if.end:                                           ; preds = %for.cond.split, %entry.split
  %phi.call = phi i32 [ %call48, %entry.split ], [ %call51, %for.cond.split ]
  %l1_entries.0 = phi i64 [ 0, %entry.split ], [ %l1_entries.1.lcssa, %for.cond.split ]
  %cmp6 = icmp slt i32 %phi.call, 0
  br i1 %cmp6, label %fail, label %if.end9

if.end9:                                          ; preds = %if.end
  %l2_table_cache = getelementptr inbounds nuw i8, ptr %0, i64 80
  %8 = load ptr, ptr %l2_table_cache, align 8
  %call10 = tail call i32 @qcow2_cache_empty(ptr noundef %bs, ptr noundef %8) #13
  %cmp11 = icmp slt i32 %call10, 0
  br i1 %cmp11, label %fail, label %for.cond15.preheader

for.cond15.preheader:                             ; preds = %if.end9
  %nb_snapshots16 = getelementptr inbounds nuw i8, ptr %0, i64 260
  %9 = load i32, ptr %nb_snapshots16, align 4
  %cmp1760.not = icmp eq i32 %9, 0
  br i1 %cmp1760.not, label %fail, label %for.body19.lr.ph

for.body19.lr.ph:                                 ; preds = %for.cond15.preheader
  %snapshots21 = getelementptr inbounds nuw i8, ptr %0, i64 264
  %file = getelementptr inbounds nuw i8, ptr %bs, i64 16840
  br label %for.body19

for.cond15:                                       ; preds = %for.end67
  %inc78 = add nuw i32 %i.161, 1
  %10 = load i32, ptr %nb_snapshots16, align 4
  %cmp17 = icmp ult i32 %inc78, %10
  br i1 %cmp17, label %for.body19, label %fail, !llvm.loop !21

for.body19:                                       ; preds = %for.body19.lr.ph, %for.cond15
  %l1_table.162 = phi ptr [ null, %for.body19.lr.ph ], [ %call41, %for.cond15 ]
  %i.161 = phi i32 [ 0, %for.body19.lr.ph ], [ %inc78, %for.cond15 ]
  store ptr null, ptr %local_err, align 8
  %11 = load ptr, ptr %snapshots21, align 8
  %idxprom22 = sext i32 %i.161 to i64
  %arrayidx23 = getelementptr %struct.QCowSnapshot, ptr %11, i64 %idxprom22
  %12 = load i64, ptr %arrayidx23, align 8
  %l1_size27 = getelementptr inbounds nuw i8, ptr %arrayidx23, i64 8
  %13 = load i32, ptr %l1_size27, align 8
  %conv28 = zext i32 %13 to i64
  %call29 = call i32 @qcow2_validate_table(ptr noundef %bs, i64 noundef %12, i64 noundef %conv28, i64 noundef 8, i64 noundef 33554432, ptr noundef nonnull @.str.27, ptr noundef nonnull %local_err) #13
  %cmp30 = icmp slt i32 %call29, 0
  br i1 %cmp30, label %if.then32, label %if.end33

if.then32:                                        ; preds = %for.body19
  %14 = load ptr, ptr %local_err, align 8
  call void @error_report_err(ptr noundef %14) #13
  br label %fail

if.end33:                                         ; preds = %for.body19
  %15 = load ptr, ptr %snapshots21, align 8
  %l1_size37 = getelementptr %struct.QCowSnapshot, ptr %15, i64 %idxprom22, i32 1
  %16 = load i32, ptr %l1_size37, align 8
  %mul = shl i32 %16, 3
  %conv40 = sext i32 %mul to i64
  %call41 = call ptr @g_try_realloc(ptr noundef %l1_table.162, i64 noundef %conv40) #13
  %tobool42.not = icmp eq ptr %call41, null
  br i1 %tobool42.not, label %fail, label %if.end44

if.end44:                                         ; preds = %if.end33
  %17 = load ptr, ptr %file, align 8
  %18 = load ptr, ptr %snapshots21, align 8
  %arrayidx47 = getelementptr %struct.QCowSnapshot, ptr %18, i64 %idxprom22
  %19 = load i64, ptr %arrayidx47, align 8
  %call50 = call i32 @bdrv_pread(ptr noundef %17, i64 noundef %19, i64 noundef %conv40, ptr noundef nonnull %call41, i32 noundef 0) #13
  %cmp51 = icmp slt i32 %call50, 0
  br i1 %cmp51, label %fail, label %for.cond55.preheader

for.cond55.preheader:                             ; preds = %if.end44
  %20 = load ptr, ptr %snapshots21, align 8
  %l1_size5956 = getelementptr %struct.QCowSnapshot, ptr %20, i64 %idxprom22, i32 1
  %21 = load i32, ptr %l1_size5956, align 8
  %cmp6057.not = icmp eq i32 %21, 0
  br i1 %cmp6057.not, label %for.end67, label %for.body62

for.body62:                                       ; preds = %for.cond55.preheader, %for.body62
  %j.058 = phi i32 [ %inc66, %for.body62 ], [ 0, %for.cond55.preheader ]
  %idxprom63 = sext i32 %j.058 to i64
  %arrayidx64 = getelementptr i64, ptr %call41, i64 %idxprom63
  %22 = load i64, ptr %arrayidx64, align 8
  %23 = call i64 @llvm.bswap.i64(i64 %22)
  store i64 %23, ptr %arrayidx64, align 8
  %inc66 = add nuw i32 %j.058, 1
  %24 = load ptr, ptr %snapshots21, align 8
  %l1_size59 = getelementptr %struct.QCowSnapshot, ptr %24, i64 %idxprom22, i32 1
  %25 = load i32, ptr %l1_size59, align 8
  %cmp60 = icmp ult i32 %inc66, %25
  br i1 %cmp60, label %for.body62, label %for.end67, !llvm.loop !22

for.end67:                                        ; preds = %for.body62, %for.cond55.preheader
  %.lcssa = phi i32 [ 0, %for.cond55.preheader ], [ %25, %for.body62 ]
  %call72 = call fastcc i32 @expand_zero_clusters_in_l1(ptr noundef %bs, ptr noundef nonnull %call41, i32 noundef %.lcssa, ptr noundef %visited_l1_entries, i64 noundef %l1_entries.0, ptr noundef %status_cb, ptr noundef %cb_opaque)
  %cmp73 = icmp slt i32 %call72, 0
  br i1 %cmp73, label %fail, label %for.cond15

fail:                                             ; preds = %if.end44, %for.end67, %if.end33, %for.cond15, %for.cond15.preheader, %if.end9, %if.end, %if.then32
  %ret.0 = phi i32 [ %phi.call, %if.end ], [ %call10, %if.end9 ], [ %call29, %if.then32 ], [ 0, %for.cond15.preheader ], [ %call50, %if.end44 ], [ %call72, %for.end67 ], [ -12, %if.end33 ], [ 0, %for.cond15 ]
  %l1_table.0 = phi ptr [ null, %if.end ], [ null, %if.end9 ], [ %l1_table.162, %if.then32 ], [ null, %for.cond15.preheader ], [ %call41, %if.end44 ], [ %call41, %for.end67 ], [ %l1_table.162, %if.end33 ], [ %call41, %for.cond15 ]
  call void @g_free(ptr noundef %l1_table.0) #13
  ret i32 %ret.0
}